target datalayout = "e-m:e-p270:32:32-p271:32:32-p272:64:64-i64:64-i128:128-f80:128-n8:16:32:64-S128"
target triple = "x86_64-pc-linux-gnu"

%struct.dynbuf = type { ptr, i64, i64, i64 }
%struct.Curl_cfilter = type { ptr, ptr, ptr, ptr, i32, i8 }
%struct.h1_tunnel_state = type { %struct.dynbuf, %struct.dynbuf, i64, i64, %struct.Curl_chunker, i32, i64, i32, i8 }
%struct.Curl_chunker = type { i64, i32, i32, %struct.dynbuf, i8, [17 x i8], i8 }

; Function Attrs: nounwind uwtable
define internal zeroext i1 @tunnel_want_send(ptr noundef %0) #0 {
  %2 = alloca ptr, align 8
  store ptr %0, ptr %2, align 8, !tbaa !91
  %3 = load ptr, ptr %2, align 8, !tbaa !91
  %4 = getelementptr inbounds nuw %struct.h1_tunnel_state, ptr %3, i32 0, i32 7
  %5 = load i32, ptr %4, align 8, !tbaa !103
  %6 = icmp eq i32 %5, 1
  ret i1 %6
}

; Function Attrs: nounwind uwtable
define internal void @cf_h1_proxy_adjust_pollset(ptr noundef %0, ptr noundef %1, ptr noundef %2) #0 {
  %4 = alloca ptr, align 8
  %5 = alloca ptr, align 8
  %6 = alloca ptr, align 8
  %7 = alloca ptr, align 8
  %8 = alloca i32, align 4
  store ptr %0, ptr %4, align 8, !tbaa !3
  store ptr %1, ptr %5, align 8, !tbaa !8
  store ptr %2, ptr %6, align 8, !tbaa !101
  call void @llvm.lifetime.start.p0(i64 8, ptr %7) #4
  %9 = load ptr, ptr %4, align 8, !tbaa !3
  %10 = getelementptr inbounds nuw %struct.Curl_cfilter, ptr %9, i32 0, i32 2
  %11 = load ptr, ptr %10, align 8, !tbaa !90
  store ptr %11, ptr %7, align 8, !tbaa !91
  %12 = load ptr, ptr %4, align 8, !tbaa !3
  %13 = getelementptr inbounds nuw %struct.Curl_cfilter, ptr %12, i32 0, i32 5
  %14 = load i8, ptr %13, align 4
  %15 = and i8 %14, 1
  %16 = zext i8 %15 to i32
  %17 = icmp ne i32 %16, 0
  br i1 %17, label %41, label %18

18:                                               ; preds = %3
  call void @llvm.lifetime.start.p0(i64 4, ptr %8) #4
  %19 = load ptr, ptr %4, align 8, !tbaa !3
  %20 = load ptr, ptr %5, align 8, !tbaa !8
  %21 = call i32 @Curl_conn_cf_get_socket(ptr noundef %19, ptr noundef %20)
  store i32 %21, ptr %8, align 4, !tbaa !97
  %22 = load ptr, ptr %7, align 8, !tbaa !91
  %23 = icmp ne ptr %22, null
  br i1 %23, label %24, label %36

24:                                               ; preds = %18
  %25 = load ptr, ptr %7, align 8, !tbaa !91
  %26 = call zeroext i1 @tunnel_want_send(ptr noundef %25)
  br i1 %26, label %27, label %31

27:                                               ; preds = %24
  %28 = load ptr, ptr %5, align 8, !tbaa !8
  %29 = load ptr, ptr %6, align 8, !tbaa !101
  %30 = load i32, ptr %8, align 4, !tbaa !97
  call void @Curl_pollset_change(ptr noundef %28, ptr noundef %29, i32 noundef %30, i32 noundef 2, i32 noundef 1)
  br label %35

31:                                               ; preds = %24
  %32 = load ptr, ptr %5, align 8, !tbaa !8
  %33 = load ptr, ptr %6, align 8, !tbaa !101
  %34 = load i32, ptr %8, align 4, !tbaa !97
  call void @Curl_pollset_change(ptr noundef %32, ptr noundef %33, i32 noundef %34, i32 noundef 1, i32 noundef 2)
  br label %35

35:                                               ; preds = %31, %27
  br label %40

36:                                               ; preds = %18
  %37 = load ptr, ptr %5, align 8, !tbaa !8
  %38 = load ptr, ptr %6, align 8, !tbaa !101
  %39 = load i32, ptr %8, align 4, !tbaa !97
  call void @Curl_pollset_change(ptr noundef %37, ptr noundef %38, i32 noundef %39, i32 noundef 2, i32 noundef 1)
  br label %40

40:                                               ; preds = %36, %35
  call void @llvm.lifetime.end.p0(i64 4, ptr %8) #4
  br label %41

41:                                               ; preds = %40, %3
  call void @llvm.lifetime.end.p0(i64 8, ptr %7) #4
  ret void
}