; Function Attrs: nounwind uwtable
define internal void @cf_h1_proxy_adjust_pollset(ptr noundef %0, ptr noundef %1, ptr noundef %2) #0 {
  %4 = getelementptr inbounds nuw i8, ptr %0, i64 16
  %5 = load ptr, ptr %4, align 8, !tbaa !83
  %6 = getelementptr inbounds nuw i8, ptr %0, i64 36
  %7 = load i8, ptr %6, align 4
  %8 = and i8 %7, 1
  %.not = icmp eq i8 %8, 0
  br i1 %.not, label %9, label %17

9:                                                ; preds = %3
  %10 = tail call i32 @Curl_conn_cf_get_socket(ptr noundef nonnull %0, ptr noundef %1) #5
  %.not14 = icmp eq ptr %5, null
  br i1 %.not14, label %16, label %11

11:                                               ; preds = %9
  %12 = getelementptr i8, ptr %5, i64 168
  %.val = load i32, ptr %12, align 8, !tbaa !104
  %13 = icmp eq i32 %.val, 1
  br i1 %13, label %14, label %15

14:                                               ; preds = %11
  tail call void @Curl_pollset_change(ptr noundef %1, ptr noundef %2, i32 noundef %10, i32 noundef 2, i32 noundef 1) #5
  br label %17

15:                                               ; preds = %11
  tail call void @Curl_pollset_change(ptr noundef %1, ptr noundef %2, i32 noundef %10, i32 noundef 1, i32 noundef 2) #5
  br label %17

16:                                               ; preds = %9
  tail call void @Curl_pollset_change(ptr noundef %1, ptr noundef %2, i32 noundef %10, i32 noundef 2, i32 noundef 1) #5
  br label %17

17:                                               ; preds = %16, %15, %14, %3
  ret void
}